; ModuleID = '43/84.c'
source_filename = "43/84.c"
target datalayout = "e-m:e-p270:32:32-p271:32:32-p272:64:64-i64:64-f80:128-n8:16:32:64-S128"
target triple = "x86_64-pc-linux-gnu"

@.str = private unnamed_addr constant [3 x i8] c"%d\00", align 1
@.str.1 = private unnamed_addr constant [7 x i8] c"%d %d\0A\00", align 1

; Function Attrs: noinline nounwind uwtable
define dso_local i32 @main() #0 {
  %1 = alloca i32, align 4
  %2 = alloca i32, align 4
  %3 = alloca i32, align 4
  %4 = alloca i32, align 4
  %5 = alloca i32, align 4
  store i32 0, i32* %1, align 4
  %6 = call i32 (i8*, ...) @__isoc99_scanf(i8* getelementptr inbounds ([3 x i8], [3 x i8]* @.str, i64 0, i64 0), i32* %2)
  store i32 3, i32* %3, align 4
  br label %7

7:                                                ; preds = %72, %0
  %8 = load i32, i32* %3, align 4
  %9 = load i32, i32* %2, align 4
  %10 = sdiv i32 %9, 2
  %11 = icmp sle i32 %8, %10
  br i1 %11, label %12, label %75

12:                                               ; preds = %7
  store i32 2, i32* %5, align 4
  br label %13

13:                                               ; preds = %27, %12
  %14 = load i32, i32* %5, align 4
  %15 = sitofp i32 %14 to double
  %16 = load i32, i32* %3, align 4
  %17 = sitofp i32 %16 to double
  %18 = call double @sqrt(double %17) #3
  %19 = fcmp ole double %15, %18
  br i1 %19, label %20, label %30

20:                                               ; preds = %13
  %21 = load i32, i32* %3, align 4
  %22 = load i32, i32* %5, align 4
  %23 = srem i32 %21, %22
  %24 = icmp eq i32 %23, 0
  br i1 %24, label %25, label %26

25:                                               ; preds = %20
  br label %30

26:                                               ; preds = %20
  br label %27

27:                                               ; preds = %26
  %28 = load i32, i32* %5, align 4
  %29 = add nsw i32 %28, 1
  store i32 %29, i32* %5, align 4
  br label %13

30:                                               ; preds = %25, %13
  %31 = load i32, i32* %5, align 4
  %32 = sitofp i32 %31 to double
  %33 = load i32, i32* %3, align 4
  %34 = sitofp i32 %33 to double
  %35 = call double @sqrt(double %34) #3
  %36 = fcmp ogt double %32, %35
  br i1 %36, label %37, label %41

37:                                               ; preds = %30
  %38 = load i32, i32* %2, align 4
  %39 = load i32, i32* %3, align 4
  %40 = sub nsw i32 %38, %39
  store i32 %40, i32* %4, align 4
  br label %42

41:                                               ; preds = %30
  br label %72

42:                                               ; preds = %37
  store i32 2, i32* %5, align 4
  br label %43

43:                                               ; preds = %57, %42
  %44 = load i32, i32* %5, align 4
  %45 = sitofp i32 %44 to double
  %46 = load i32, i32* %4, align 4
  %47 = sitofp i32 %46 to double
  %48 = call double @sqrt(double %47) #3
  %49 = fcmp ole double %45, %48
  br i1 %49, label %50, label %60

50:                                               ; preds = %43
  %51 = load i32, i32* %4, align 4
  %52 = load i32, i32* %5, align 4
  %53 = srem i32 %51, %52
  %54 = icmp eq i32 %53, 0
  br i1 %54, label %55, label %56

55:                                               ; preds = %50
  br label %60

56:                                               ; preds = %50
  br label %57

57:                                               ; preds = %56
  %58 = load i32, i32* %5, align 4
  %59 = add nsw i32 %58, 1
  store i32 %59, i32* %5, align 4
  br label %43

60:                                               ; preds = %55, %43
  %61 = load i32, i32* %5, align 4
  %62 = sitofp i32 %61 to double
  %63 = load i32, i32* %4, align 4
  %64 = sitofp i32 %63 to double
  %65 = call double @sqrt(double %64) #3
  %66 = fcmp ogt double %62, %65
  br i1 %66, label %67, label %71

67:                                               ; preds = %60
  %68 = load i32, i32* %3, align 4
  %69 = load i32, i32* %4, align 4
  %70 = call i32 (i8*, ...) @printf(i8* getelementptr inbounds ([7 x i8], [7 x i8]* @.str.1, i64 0, i64 0), i32 %68, i32 %69)
  br label %71

71:                                               ; preds = %67, %60
  br label %72

72:                                               ; preds = %71, %41
  %73 = load i32, i32* %3, align 4
  %74 = add nsw i32 %73, 2
  store i32 %74, i32* %3, align 4
  br label %7

75:                                               ; preds = %7
  ret i32 0
}

declare dso_local i32 @__isoc99_scanf(i8*, ...) #1

; Function Attrs: nounwind
declare dso_local double @sqrt(double) #2

declare dso_local i32 @printf(i8*, ...) #1


!llvm.module.flags = !{!0}
!llvm.ident = !{!1}

!0 = !{i32 1, !"wchar_size", i32 4}
!1 = !{!"clang version 10.0.0-4ubuntu1 "}
